target datalayout = "e-m:e-p270:32:32-p271:32:32-p272:64:64-i64:64-i128:128-f80:128-n8:16:32:64-S128"
target triple = "x86_64-pc-linux-gnu"

%struct.ssl_st = type { i32, i16, i16, ptr, ptr, ptr, ptr, ptr, i32, i32, ptr, ptr, i32, i32, ptr, ptr, ptr, ptr, ptr, ptr, ptr, ptr, i32, i32, [32 x i8], ptr, ptr, ptr, ptr, ptr, ptr, ptr, i64, %struct.crypto_ex_data_st, ptr, i32, i32, i32, i32, i16, ptr, i32, i64, ptr, ptr, ptr, ptr, ptr, ptr, i32, i32, ptr, ptr, i8, i8, i32 }
%struct.crypto_ex_data_st = type { ptr }
%struct.ssl3_state_st = type { [8 x i8], [8 x i8], [32 x i8], [32 x i8], i8, i8, %struct.ssl3_buffer_st, %struct.ssl3_buffer_st, %struct.ssl3_record_st, i8, i32, i32, i32, i32, ptr, ptr, %struct.env_md_ctx_st, %struct.env_md_ctx_st, i8, i32, [2 x i8], i32, i8, i8, ptr, ptr, ptr, %struct.anon, [64 x i8], i8, [64 x i8], i8, i32, i32, ptr, i64, ptr, i64, i8, [64 x i8] }
%struct.ssl3_buffer_st = type { ptr, i16, i16, i16 }
%struct.ssl3_record_st = type { i8, i16, ptr }
%struct.env_md_ctx_st = type { ptr, ptr, ptr, ptr }
%struct.anon = type { [64 x i8], i32, [64 x i8], i32, i64, i32, ptr, i32, i32, %union.anon, %union.anon.0, i8, i32, ptr, ptr, i64, ptr, i8, i8, i8, i8, i32, i8, ptr, i64, i8, ptr, i8, i8, i8, %struct.ssl_ecdh_ctx_st, ptr, i16 }
%union.anon = type { i32 }
%union.anon.0 = type { i16 }
%struct.ssl_ecdh_ctx_st = type { ptr, ptr }
%struct.ssl_protocol_method_st = type { i8, ptr, ptr, ptr, ptr, ptr, ptr, ptr, ptr, ptr, ptr, ptr, i32, ptr, ptr }
%struct.ssl_session_st = type { i32, i32, i32, i32, [48 x i8], i32, [32 x i8], i32, [32 x i8], ptr, ptr, ptr, i64, i64, i64, ptr, %struct.crypto_ex_data_st, ptr, ptr, ptr, ptr, i64, i64, ptr, i64, ptr, [32 x i8], [64 x i8], i32, i32, i8 }
%struct.cbs_st = type { ptr, i64 }

@.str = private unnamed_addr constant [117 x i8] c"generated/home/dtcxzyw/WorkSpace/Projects/compilers/llvm-opt-benchmark/bench/libquic/libquic/boringssl/ssl/s3_clnt.c\00", align 1

; Function Attrs: nounwind uwtable
define hidden i32 @ssl3_get_cert_status(ptr noundef %0) #0 {
  %2 = alloca i32, align 4
  %3 = alloca ptr, align 8
  %4 = alloca i32, align 4
  %5 = alloca i32, align 4
  %6 = alloca i64, align 8
  %7 = alloca %struct.cbs_st, align 8
  %8 = alloca %struct.cbs_st, align 8
  %9 = alloca i8, align 1
  %10 = alloca i32, align 4
  store ptr %0, ptr %3, align 8, !tbaa !6
  call void @llvm.lifetime.start.p0(i64 4, ptr %4) #8
  call void @llvm.lifetime.start.p0(i64 4, ptr %5) #8
  call void @llvm.lifetime.start.p0(i64 8, ptr %6) #8
  call void @llvm.lifetime.start.p0(i64 16, ptr %7) #8
  call void @llvm.lifetime.start.p0(i64 16, ptr %8) #8
  call void @llvm.lifetime.start.p0(i64 1, ptr %9) #8
  %11 = load ptr, ptr %3, align 8, !tbaa !6
  %12 = getelementptr inbounds nuw %struct.ssl_st, ptr %11, i32 0, i32 3
  %13 = load ptr, ptr %12, align 8, !tbaa !74
  %14 = getelementptr inbounds nuw %struct.ssl_protocol_method_st, ptr %13, i32 0, i32 5
  %15 = load ptr, ptr %14, align 8, !tbaa !109
  %16 = load ptr, ptr %3, align 8, !tbaa !6
  %17 = call i64 %15(ptr noundef %16, i32 noundef 4592, i32 noundef 4593, i32 noundef -1, i64 noundef 16384, i32 noundef 1, ptr noundef %4)
  store i64 %17, ptr %6, align 8, !tbaa !106
  %18 = load i32, ptr %4, align 4, !tbaa !14
  %19 = icmp ne i32 %18, 0
  br i1 %19, label %23, label %20

20:                                               ; preds = %1
  %21 = load i64, ptr %6, align 8, !tbaa !106
  %22 = trunc i64 %21 to i32
  store i32 %22, ptr %2, align 4
  store i32 1, ptr %10, align 4
  br label %75

23:                                               ; preds = %1
  %24 = load ptr, ptr %3, align 8, !tbaa !6
  %25 = getelementptr inbounds nuw %struct.ssl_st, ptr %24, i32 0, i32 14
  %26 = load ptr, ptr %25, align 8, !tbaa !54
  %27 = getelementptr inbounds nuw %struct.ssl3_state_st, ptr %26, i32 0, i32 27
  %28 = getelementptr inbounds nuw %struct.anon, ptr %27, i32 0, i32 5
  %29 = load i32, ptr %28, align 8, !tbaa !146
  %30 = icmp ne i32 %29, 22
  br i1 %30, label %31, label %37

31:                                               ; preds = %23
  %32 = load ptr, ptr %3, align 8, !tbaa !6
  %33 = getelementptr inbounds nuw %struct.ssl_st, ptr %32, i32 0, i32 14
  %34 = load ptr, ptr %33, align 8, !tbaa !54
  %35 = getelementptr inbounds nuw %struct.ssl3_state_st, ptr %34, i32 0, i32 27
  %36 = getelementptr inbounds nuw %struct.anon, ptr %35, i32 0, i32 8
  store i32 1, ptr %36, align 4, !tbaa !79
  store i32 1, ptr %2, align 4
  store i32 1, ptr %10, align 4
  br label %75

37:                                               ; preds = %23
  %38 = load ptr, ptr %3, align 8, !tbaa !6
  %39 = getelementptr inbounds nuw %struct.ssl_st, ptr %38, i32 0, i32 11
  %40 = load ptr, ptr %39, align 8, !tbaa !110
  %41 = load i64, ptr %6, align 8, !tbaa !106
  call void @CBS_init(ptr noundef %7, ptr noundef %40, i64 noundef %41)
  %42 = call i32 @CBS_get_u8(ptr noundef %7, ptr noundef %9)
  %43 = icmp ne i32 %42, 0
  br i1 %43, label %44, label %57

44:                                               ; preds = %37
  %45 = load i8, ptr %9, align 1, !tbaa !127
  %46 = zext i8 %45 to i32
  %47 = icmp ne i32 %46, 1
  br i1 %47, label %57, label %48

48:                                               ; preds = %44
  %49 = call i32 @CBS_get_u24_length_prefixed(ptr noundef %7, ptr noundef %8)
  %50 = icmp ne i32 %49, 0
  br i1 %50, label %51, label %57

51:                                               ; preds = %48
  %52 = call i64 @CBS_len(ptr noundef %8)
  %53 = icmp eq i64 %52, 0
  br i1 %53, label %57, label %54

54:                                               ; preds = %51
  %55 = call i64 @CBS_len(ptr noundef %7)
  %56 = icmp ne i64 %55, 0
  br i1 %56, label %57, label %58

57:                                               ; preds = %54, %51, %48, %44, %37
  store i32 50, ptr %5, align 4, !tbaa !14
  call void @ERR_put_error(i32 noundef 16, i32 noundef 0, i32 noundef 137, ptr noundef @.str, i32 noundef 1512)
  br label %71

58:                                               ; preds = %54
  %59 = load ptr, ptr %3, align 8, !tbaa !6
  %60 = getelementptr inbounds nuw %struct.ssl_st, ptr %59, i32 0, i32 25
  %61 = load ptr, ptr %60, align 8, !tbaa !86
  %62 = getelementptr inbounds nuw %struct.ssl_session_st, ptr %61, i32 0, i32 25
  %63 = load ptr, ptr %3, align 8, !tbaa !6
  %64 = getelementptr inbounds nuw %struct.ssl_st, ptr %63, i32 0, i32 25
  %65 = load ptr, ptr %64, align 8, !tbaa !86
  %66 = getelementptr inbounds nuw %struct.ssl_session_st, ptr %65, i32 0, i32 24
  %67 = call i32 @CBS_stow(ptr noundef %8, ptr noundef %62, ptr noundef %66)
  %68 = icmp ne i32 %67, 0
  br i1 %68, label %70, label %69

69:                                               ; preds = %58
  store i32 80, ptr %5, align 4, !tbaa !14
  call void @ERR_put_error(i32 noundef 16, i32 noundef 0, i32 noundef 65, ptr noundef @.str, i32 noundef 1519)
  br label %71

70:                                               ; preds = %58
  store i32 1, ptr %2, align 4
  store i32 1, ptr %10, align 4
  br label %75

71:                                               ; preds = %69, %57
  %72 = load ptr, ptr %3, align 8, !tbaa !6
  %73 = load i32, ptr %5, align 4, !tbaa !14
  %74 = call i32 @ssl3_send_alert(ptr noundef %72, i32 noundef 2, i32 noundef %73)
  store i32 -1, ptr %2, align 4
  store i32 1, ptr %10, align 4
  br label %75

75:                                               ; preds = %71, %70, %31, %20
  call void @llvm.lifetime.end.p0(i64 1, ptr %9) #8
  call void @llvm.lifetime.end.p0(i64 16, ptr %8) #8
  call void @llvm.lifetime.end.p0(i64 16, ptr %7) #8
  call void @llvm.lifetime.end.p0(i64 8, ptr %6) #8
  call void @llvm.lifetime.end.p0(i64 4, ptr %5) #8
  call void @llvm.lifetime.end.p0(i64 4, ptr %4) #8
  %76 = load i32, ptr %2, align 4
  ret i32 %76
}