; Function Attrs: nounwind uwtable
define hidden i32 @ssl3_get_cert_status(ptr noundef %0) local_unnamed_addr #0 {
  %2 = alloca i32, align 4
  %3 = alloca %struct.cbs_st, align 8
  %4 = alloca %struct.cbs_st, align 8
  %5 = alloca i8, align 1
  call void @llvm.lifetime.start.p0(i64 4, ptr nonnull %2) #11
  call void @llvm.lifetime.start.p0(i64 16, ptr nonnull %3) #11
  call void @llvm.lifetime.start.p0(i64 16, ptr nonnull %4) #11
  call void @llvm.lifetime.start.p0(i64 1, ptr nonnull %5) #11
  %6 = getelementptr inbounds nuw i8, ptr %0, i64 8
  %7 = load ptr, ptr %6, align 8, !tbaa !70
  %8 = getelementptr inbounds nuw i8, ptr %7, i64 40
  %9 = load ptr, ptr %8, align 8, !tbaa !71
  %10 = call i64 %9(ptr noundef %0, i32 noundef 4592, i32 noundef 4593, i32 noundef -1, i64 noundef 16384, i32 noundef 1, ptr noundef nonnull %2) #11
  %11 = load i32, ptr %2, align 4, !tbaa !73
  %.not = icmp eq i32 %11, 0
  br i1 %.not, label %12, label %14

12:                                               ; preds = %1
  %13 = trunc i64 %10 to i32
  br label %45

14:                                               ; preds = %1
  %15 = getelementptr inbounds nuw i8, ptr %0, i64 80
  %16 = load ptr, ptr %15, align 8, !tbaa !49
  %17 = getelementptr inbounds nuw i8, ptr %16, i64 432
  %18 = load i32, ptr %17, align 8, !tbaa !129
  %.not14 = icmp eq i32 %18, 22
  br i1 %.not14, label %21, label %19

19:                                               ; preds = %14
  %20 = getelementptr inbounds nuw i8, ptr %16, i64 452
  store i32 1, ptr %20, align 4, !tbaa !82
  br label %45

21:                                               ; preds = %14
  %22 = getelementptr inbounds nuw i8, ptr %0, i64 64
  %23 = load ptr, ptr %22, align 8, !tbaa !107
  call void @CBS_init(ptr noundef nonnull %3, ptr noundef %23, i64 noundef %10) #11
  %24 = call i32 @CBS_get_u8(ptr noundef nonnull %3, ptr noundef nonnull %5) #11
  %25 = icmp eq i32 %24, 0
  %26 = load i8, ptr %5, align 1
  %27 = icmp ne i8 %26, 1
  %or.cond = select i1 %25, i1 true, i1 %27
  br i1 %or.cond, label %35, label %28

28:                                               ; preds = %21
  %29 = call i32 @CBS_get_u24_length_prefixed(ptr noundef nonnull %3, ptr noundef nonnull %4) #11
  %.not15 = icmp eq i32 %29, 0
  br i1 %.not15, label %35, label %30

30:                                               ; preds = %28
  %31 = call i64 @CBS_len(ptr noundef nonnull %4) #11
  %32 = icmp eq i64 %31, 0
  br i1 %32, label %35, label %33

33:                                               ; preds = %30
  %34 = call i64 @CBS_len(ptr noundef nonnull %3) #11
  %.not16 = icmp eq i64 %34, 0
  br i1 %.not16, label %36, label %35

35:                                               ; preds = %33, %30, %28, %21
  call void @ERR_put_error(i32 noundef 16, i32 noundef 0, i32 noundef 137, ptr noundef nonnull @.str, i32 noundef 1512) #11
  br label %43

36:                                               ; preds = %33
  %37 = getelementptr inbounds nuw i8, ptr %0, i64 184
  %38 = load ptr, ptr %37, align 8, !tbaa !64
  %39 = getelementptr inbounds nuw i8, ptr %38, i64 264
  %40 = getelementptr inbounds nuw i8, ptr %38, i64 256
  %41 = call i32 @CBS_stow(ptr noundef nonnull %4, ptr noundef nonnull %39, ptr noundef nonnull %40) #11
  %.not17 = icmp eq i32 %41, 0
  br i1 %.not17, label %42, label %45

42:                                               ; preds = %36
  call void @ERR_put_error(i32 noundef 16, i32 noundef 0, i32 noundef 65, ptr noundef nonnull @.str, i32 noundef 1519) #11
  br label %43

43:                                               ; preds = %42, %35
  %.013 = phi i32 [ 50, %35 ], [ 80, %42 ]
  %44 = call i32 @ssl3_send_alert(ptr noundef nonnull %0, i32 noundef 2, i32 noundef %.013) #11
  br label %45

45:                                               ; preds = %36, %43, %19, %12
  %.0 = phi i32 [ 1, %19 ], [ -1, %43 ], [ %13, %12 ], [ 1, %36 ]
  call void @llvm.lifetime.end.p0(i64 1, ptr nonnull %5) #11
  call void @llvm.lifetime.end.p0(i64 16, ptr nonnull %4) #11
  call void @llvm.lifetime.end.p0(i64 16, ptr nonnull %3) #11
  call void @llvm.lifetime.end.p0(i64 4, ptr nonnull %2) #11
  ret i32 %.0
}